target datalayout = "e-m:e-p270:32:32-p271:32:32-p272:64:64-i64:64-i128:128-f80:128-n8:16:32:64-S128"
target triple = "x86_64-pc-linux-gnu"

%"class.std::__cxx11::basic_string" = type { %"struct.std::__cxx11::basic_string<char>::_Alloc_hider", i64, %union.anon }
%"struct.std::__cxx11::basic_string<char>::_Alloc_hider" = type { ptr }
%union.anon = type { i64, [8 x i8] }
%"class.std::allocator" = type { i8 }

@.str.33 = private unnamed_addr constant [19 x i8] c"Invalid action Ids\00", align 1

; Function Attrs: mustprogress uwtable
define noundef i32 @_ZN10open_spiel9dou_dizhu21GetTrioCombActionBaseEi(i32 noundef %0) #5 personality ptr @__gxx_personality_v0 {
  %2 = alloca i32, align 4
  %3 = alloca i32, align 4
  %4 = alloca %"class.std::__cxx11::basic_string", align 8
  %5 = alloca %"class.std::allocator", align 1
  %6 = alloca ptr, align 8
  %7 = alloca i32, align 4
  store i32 %0, ptr %2, align 4
  %8 = load i32, ptr %2, align 4
  %9 = icmp sle i32 133, %8
  br i1 %9, label %10, label %14

10:                                               ; preds = %1
  %11 = load i32, ptr %2, align 4
  %12 = icmp slt i32 %11, 315
  br i1 %12, label %13, label %14

13:                                               ; preds = %10
  store i32 133, ptr %3, align 4
  br label %50

14:                                               ; preds = %10, %1
  %15 = load i32, ptr %2, align 4
  %16 = icmp sle i32 315, %15
  br i1 %16, label %17, label %21

17:                                               ; preds = %14
  %18 = load i32, ptr %2, align 4
  %19 = icmp slt i32 %18, 471
  br i1 %19, label %20, label %21

20:                                               ; preds = %17
  store i32 315, ptr %3, align 4
  br label %49

21:                                               ; preds = %17, %14
  %22 = load i32, ptr %2, align 4
  %23 = icmp sle i32 516, %22
  br i1 %23, label %24, label %28

24:                                               ; preds = %21
  %25 = load i32, ptr %2, align 4
  %26 = icmp slt i32 %25, 23104
  br i1 %26, label %27, label %28

27:                                               ; preds = %24
  store i32 516, ptr %3, align 4
  br label %48

28:                                               ; preds = %24, %21
  %29 = load i32, ptr %2, align 4
  %30 = icmp sle i32 23104, %29
  br i1 %30, label %31, label %35

31:                                               ; preds = %28
  %32 = load i32, ptr %2, align 4
  %33 = icmp slt i32 %32, 26043
  br i1 %33, label %34, label %35

34:                                               ; preds = %31
  store i32 23104, ptr %3, align 4
  br label %47

35:                                               ; preds = %31, %28
  call void @_ZNSaIcEC1Ev(ptr noundef nonnull align 1 dereferenceable(1) %5) #3
  invoke void @_ZNSt7__cxx1112basic_stringIcSt11char_traitsIcESaIcEEC2IS3_EEPKcRKS3_(ptr noundef nonnull align 8 dereferenceable(32) %4, ptr noundef @.str.33, ptr noundef nonnull align 1 dereferenceable(1) %5)
          to label %36 unwind label %38

36:                                               ; preds = %35
  invoke void @_ZN10open_spiel15SpielFatalErrorERKNSt7__cxx1112basic_stringIcSt11char_traitsIcESaIcEEE(ptr noundef nonnull align 8 dereferenceable(32) %4) #14
          to label %37 unwind label %42

37:                                               ; preds = %36
  unreachable

38:                                               ; preds = %35
  %39 = landingpad { ptr, i32 }
          cleanup
  %40 = extractvalue { ptr, i32 } %39, 0
  store ptr %40, ptr %6, align 8
  %41 = extractvalue { ptr, i32 } %39, 1
  store i32 %41, ptr %7, align 4
  br label %46

42:                                               ; preds = %36
  %43 = landingpad { ptr, i32 }
          cleanup
  %44 = extractvalue { ptr, i32 } %43, 0
  store ptr %44, ptr %6, align 8
  %45 = extractvalue { ptr, i32 } %43, 1
  store i32 %45, ptr %7, align 4
  call void @_ZNSt7__cxx1112basic_stringIcSt11char_traitsIcESaIcEED1Ev(ptr noundef nonnull align 8 dereferenceable(32) %4) #3
  br label %46

46:                                               ; preds = %42, %38
  call void @_ZNSaIcED1Ev(ptr noundef nonnull align 1 dereferenceable(1) %5) #3
  br label %52

47:                                               ; preds = %34
  br label %48

48:                                               ; preds = %47, %27
  br label %49

49:                                               ; preds = %48, %20
  br label %50

50:                                               ; preds = %49, %13
  %51 = load i32, ptr %3, align 4
  ret i32 %51

52:                                               ; preds = %46
  %53 = load ptr, ptr %6, align 8
  %54 = load i32, ptr %7, align 4
  %55 = insertvalue { ptr, i32 } poison, ptr %53, 0
  %56 = insertvalue { ptr, i32 } %55, i32 %54, 1
  resume { ptr, i32 } %56
}